target datalayout = "e-m:e-p270:32:32-p271:32:32-p272:64:64-i64:64-i128:128-f80:128-n8:16:32:64-S128"
target triple = "x86_64-pc-linux-gnu"

%struct.nghttp2_buf = type { ptr, ptr, ptr, ptr, ptr }
%struct.nghttp2_bufs = type { ptr, ptr, ptr, i64, i64, i64, i64, i64 }
%struct.nghttp2_buf_chain = type { ptr, %struct.nghttp2_buf }

; Function Attrs: nounwind uwtable
define hidden void @nghttp2_bufs_seek_last_present(ptr noundef %0) #0 {
  %2 = alloca ptr, align 8
  %3 = alloca ptr, align 8
  %4 = alloca i32, align 4
  store ptr %0, ptr %2, align 8, !tbaa !3
  call void @llvm.lifetime.start.p0(i64 8, ptr %3) #4
  %5 = load ptr, ptr %2, align 8, !tbaa !3
  %6 = getelementptr inbounds nuw %struct.nghttp2_bufs, ptr %5, i32 0, i32 1
  %7 = load ptr, ptr %6, align 8, !tbaa !25
  store ptr %7, ptr %3, align 8, !tbaa !23
  br label %8

8:                                                ; preds = %30, %1
  %9 = load ptr, ptr %3, align 8, !tbaa !23
  %10 = icmp ne ptr %9, null
  br i1 %10, label %11, label %34

11:                                               ; preds = %8
  %12 = load ptr, ptr %3, align 8, !tbaa !23
  %13 = getelementptr inbounds nuw %struct.nghttp2_buf_chain, ptr %12, i32 0, i32 1
  %14 = getelementptr inbounds nuw %struct.nghttp2_buf, ptr %13, i32 0, i32 3
  %15 = load ptr, ptr %14, align 8, !tbaa !28
  %16 = load ptr, ptr %3, align 8, !tbaa !23
  %17 = getelementptr inbounds nuw %struct.nghttp2_buf_chain, ptr %16, i32 0, i32 1
  %18 = getelementptr inbounds nuw %struct.nghttp2_buf, ptr %17, i32 0, i32 2
  %19 = load ptr, ptr %18, align 8, !tbaa !26
  %20 = ptrtoint ptr %15 to i64
  %21 = ptrtoint ptr %19 to i64
  %22 = sub i64 %20, %21
  %23 = icmp eq i64 %22, 0
  br i1 %23, label %24, label %25

24:                                               ; preds = %11
  store i32 1, ptr %4, align 4
  br label %35

25:                                               ; preds = %11
  %26 = load ptr, ptr %3, align 8, !tbaa !23
  %27 = load ptr, ptr %2, align 8, !tbaa !3
  %28 = getelementptr inbounds nuw %struct.nghttp2_bufs, ptr %27, i32 0, i32 1
  store ptr %26, ptr %28, align 8, !tbaa !25
  br label %29

29:                                               ; preds = %25
  br label %30

30:                                               ; preds = %29
  %31 = load ptr, ptr %3, align 8, !tbaa !23
  %32 = getelementptr inbounds nuw %struct.nghttp2_buf_chain, ptr %31, i32 0, i32 0
  %33 = load ptr, ptr %32, align 8, !tbaa !36
  store ptr %33, ptr %3, align 8, !tbaa !23
  br label %8, !llvm.loop !43

34:                                               ; preds = %8
  store i32 0, ptr %4, align 4
  br label %35

35:                                               ; preds = %34, %24
  call void @llvm.lifetime.end.p0(i64 8, ptr %3) #4
  %36 = load i32, ptr %4, align 4
  switch i32 %36, label %38 [
    i32 0, label %37
    i32 1, label %37
  ]

37:                                               ; preds = %35, %35
  ret void

38:                                               ; preds = %35
  unreachable
}